; Function Attrs: mustprogress uwtable
define internal fastcc void @"_ZN5vcpkg7Strings4joinISt6vectorIPKNS_16ExportPlanActionESaIS5_EEZNS_23command_export_and_exitERKNS_17VcpkgCmdArgumentsERKNS_10VcpkgPathsENS_7TripletESE_E3$_3EENSt7__cxx1112basic_stringIcSt11char_traitsIcESaIcEEENS_13StringLiteralERKT_T0_"(ptr dead_on_unwind noalias nonnull writable align 8 %0, ptr %1, i64 %2, ptr readonly %.0.val, ptr readnone %.8.val) unnamed_addr #0 personality ptr @__gxx_personality_v0 {
  %4 = alloca %"class.std::__cxx11::basic_string", align 8
  call void @llvm.lifetime.start.p0(i64 32, ptr nonnull %4)
  tail call void @_ZNSt7__cxx1112basic_stringIcSt11char_traitsIcESaIcEEC1Ev(ptr noundef nonnull align 8 dereferenceable(32) %0) #21
  %5 = icmp eq ptr %.0.val, %.8.val
  br i1 %5, label %"_ZN5vcpkg7Strings4joinIN9__gnu_cxx17__normal_iteratorIPKPKNS_16ExportPlanActionESt6vectorIS6_SaIS6_EEEEZNS_23command_export_and_exitERKNS_17VcpkgCmdArgumentsERKNS_10VcpkgPathsENS_7TripletESJ_E3$_3EENSt7__cxx1112basic_stringIcSt11char_traitsIcESaIcEEENS_13StringLiteralET_SS_T0_.exit", label %.preheader.i

.preheader.i:                                     ; preds = %3, %13
  %.sroa.06.0.i = phi ptr [ %7, %13 ], [ %.0.val, %3 ]
  %6 = load ptr, ptr %.sroa.06.0.i, align 8, !noalias !55
  invoke void @_ZNK5vcpkg11PackageSpec9to_stringB5cxx11Ev(ptr dead_on_unwind nonnull writable sret(%"class.std::__cxx11::basic_string") align 8 %4, ptr noundef nonnull align 8 dereferenceable(40) %6)
          to label %"_ZZN5vcpkg23command_export_and_exitERKNS_17VcpkgCmdArgumentsERKNS_10VcpkgPathsENS_7TripletES6_ENK3$_3clB5cxx11EPKNS_16ExportPlanActionE.exit.i" unwind label %9

"_ZZN5vcpkg23command_export_and_exitERKNS_17VcpkgCmdArgumentsERKNS_10VcpkgPathsENS_7TripletES6_ENK3$_3clB5cxx11EPKNS_16ExportPlanActionE.exit.i": ; preds = %.preheader.i
  invoke void @_ZN5vcpkg7Strings7details15append_internalERNSt7__cxx1112basic_stringIcSt11char_traitsIcESaIcEEERKS7_(ptr noundef nonnull align 8 dereferenceable(32) %0, ptr noundef nonnull align 8 dereferenceable(32) %4)
          to label %_ZN5vcpkg7Strings6appendIJNSt7__cxx1112basic_stringIcSt11char_traitsIcESaIcEEEEEERS7_S8_DpRKT_.exit.i unwind label %11

_ZN5vcpkg7Strings6appendIJNSt7__cxx1112basic_stringIcSt11char_traitsIcESaIcEEEEEERS7_S8_DpRKT_.exit.i: ; preds = %"_ZZN5vcpkg23command_export_and_exitERKNS_17VcpkgCmdArgumentsERKNS_10VcpkgPathsENS_7TripletES6_ENK3$_3clB5cxx11EPKNS_16ExportPlanActionE.exit.i"
  call void @_ZNSt7__cxx1112basic_stringIcSt11char_traitsIcESaIcEED1Ev(ptr noundef nonnull align 8 dereferenceable(32) %4) #21
  %7 = getelementptr inbounds i8, ptr %.sroa.06.0.i, i64 8
  %8 = icmp eq ptr %7, %.8.val
  br i1 %8, label %"_ZN5vcpkg7Strings4joinIN9__gnu_cxx17__normal_iteratorIPKPKNS_16ExportPlanActionESt6vectorIS6_SaIS6_EEEEZNS_23command_export_and_exitERKNS_17VcpkgCmdArgumentsERKNS_10VcpkgPathsENS_7TripletESJ_E3$_3EENSt7__cxx1112basic_stringIcSt11char_traitsIcESaIcEEENS_13StringLiteralET_SS_T0_.exit", label %13

9:                                                ; preds = %13, %.preheader.i
  %10 = landingpad { ptr, i32 }
          cleanup
  br label %15

11:                                               ; preds = %"_ZZN5vcpkg23command_export_and_exitERKNS_17VcpkgCmdArgumentsERKNS_10VcpkgPathsENS_7TripletES6_ENK3$_3clB5cxx11EPKNS_16ExportPlanActionE.exit.i"
  %12 = landingpad { ptr, i32 }
          cleanup
  call void @_ZNSt7__cxx1112basic_stringIcSt11char_traitsIcESaIcEED1Ev(ptr noundef nonnull align 8 dereferenceable(32) %4) #21
  br label %15

13:                                               ; preds = %_ZN5vcpkg7Strings6appendIJNSt7__cxx1112basic_stringIcSt11char_traitsIcESaIcEEEEEERS7_S8_DpRKT_.exit.i
  %14 = invoke noundef nonnull align 8 dereferenceable(32) ptr @_ZNSt7__cxx1112basic_stringIcSt11char_traitsIcESaIcEE6appendEPKcm(ptr noundef nonnull align 8 dereferenceable(32) %0, ptr noundef %1, i64 noundef %2)
          to label %.preheader.i unwind label %9, !llvm.loop !58

15:                                               ; preds = %11, %9
  %.pn.i = phi { ptr, i32 } [ %10, %9 ], [ %12, %11 ]
  call void @_ZNSt7__cxx1112basic_stringIcSt11char_traitsIcESaIcEED1Ev(ptr noundef nonnull align 8 dereferenceable(32) %0) #21
  resume { ptr, i32 } %.pn.i

"_ZN5vcpkg7Strings4joinIN9__gnu_cxx17__normal_iteratorIPKPKNS_16ExportPlanActionESt6vectorIS6_SaIS6_EEEEZNS_23command_export_and_exitERKNS_17VcpkgCmdArgumentsERKNS_10VcpkgPathsENS_7TripletESJ_E3$_3EENSt7__cxx1112basic_stringIcSt11char_traitsIcESaIcEEENS_13StringLiteralET_SS_T0_.exit": ; preds = %_ZN5vcpkg7Strings6appendIJNSt7__cxx1112basic_stringIcSt11char_traitsIcESaIcEEEEEERS7_S8_DpRKT_.exit.i, %3
  call void @llvm.lifetime.end.p0(i64 32, ptr nonnull %4)
  ret void
}